Certificate:
    Data:
        Version: 3 (0x2)
        Serial Number: 3 (0x3)
    Signature Algorithm: sha1WithRSAEncryption
        Issuer: C=IT, O=IGI, CN=Test CA
        Validity
            Not Before: Dec  1 00:00:00 2011 GMT
            Not After : Dec  2 00:00:00 2011 GMT
        Subject: C=IT, O=IGI, CN=expired
        Subject Public Key Info:
            Public Key Algorithm: rsaEncryption
                Public-Key: (2048 bit)
                Modulus:
                    00:be:c0:62:a2:af:9d:01:41:cf:b2:78:cf:a7:ef:
                    a4:56:b5:80:c6:ba:19:d1:a2:73:9e:85:d4:ac:31:
                    da:7b:cd:00:85:ae:8e:db:63:05:96:a1:24:e1:ad:
                    69:69:9b:4d:b5:4a:c7:17:69:32:e4:0e:95:6d:f9:
                    39:49:6d:a2:10:bb:a3:66:71:06:b5:b1:a4:69:e2:
                    61:e9:71:15:5e:a7:b3:2c:8d:f8:2d:a8:d8:b5:2f:
                    c8:19:f7:59:ab:41:5c:bc:4e:01:5f:fe:f1:98:7d:
                    94:d5:ea:4d:ee:83:82:2f:bb:72:25:e0:0e:ec:d2:
                    77:b8:71:76:81:6e:f0:98:1c:e5:0e:e9:17:01:7c:
                    2c:64:b5:93:cf:ab:fe:20:e8:49:fe:29:72:b0:7d:
                    87:af:59:06:21:56:10:c4:ed:09:ca:26:eb:79:bd:
                    72:ad:07:48:79:09:b9:8c:fc:3d:c4:0f:e6:28:3e:
                    d2:8c:5e:88:73:40:40:30:67:47:6f:63:e3:20:96:
                    06:da:54:a8:d7:eb:9c:ad:51:b0:b4:96:e8:da:ad:
                    08:cd:01:91:14:92:fa:31:10:8d:b0:31:d7:4d:1c:
                    c4:45:cd:d3:d9:cd:ce:73:76:bf:d8:79:e1:e1:6c:
                    0a:d3:55:c4:d7:f6:59:78:c5:f3:94:43:2d:b4:ef:
                    18:bd
                Exponent: 65537 (0x10001)
        X509v3 extensions:
            X509v3 Basic Constraints: critical
                CA:FALSE
            X509v3 Subject Key Identifier: 
                15:1B:A1:18:28:FA:09:25:E9:F0:CE:49:1E:74:C8:94:DA:84:CB:45
            X509v3 Key Usage: critical
                Digital Signature, Non Repudiation, Key Encipherment
            X509v3 Extended Key Usage: 
                TLS Web Server Authentication, TLS Web Client Authentication, Microsoft Server Gated Crypto, Netscape Server Gated Crypto, E-mail Protection
            X509v3 Authority Key Identifier: 
                keyid:91:77:36:7B:2E:B4:69:F3:27:EA:B7:F6:08:8B:4A:23:A2:11:49:C6

            X509v3 Subject Alternative Name: 
                email:andrea.ceccanti@cnaf.infn.it
    Signature Algorithm: sha1WithRSAEncryption
         c8:1d:2d:88:0a:d6:d4:ab:b9:85:5c:2c:12:f2:b7:d7:06:ce:
         73:87:a0:27:ae:7a:b0:de:f2:a2:a4:49:07:fb:ec:01:64:de:
         06:8d:28:d5:de:85:89:9a:c2:9b:33:ce:e8:06:4e:7e:1a:f3:
         bd:89:2f:91:41:96:d2:0b:7f:70:23:f0:04:6c:43:c2:bd:5a:
         3b:14:d3:65:ea:0e:48:3d:14:59:ec:7c:01:53:5b:d6:28:ca:
         de:b7:6c:45:22:b2:cd:48:c2:a2:ae:e8:78:65:50:d4:8e:cf:
         1e:82:dd:da:76:3f:c1:68:df:0c:73:c5:d1:c1:89:08:71:9c:
         e2:4a:cb:d7:4f:77:3d:d7:82:7b:4d:1f:64:44:27:b2:09:5d:
         0b:63:34:de:b8:a9:32:a5:63:b9:53:23:a5:7b:83:af:f4:9a:
         8f:05:af:4e:2f:e4:2a:00:c2:7d:a9:82:2c:30:de:ea:69:cf:
         b8:97:5b:c8:2d:51:52:e5:58:3c:98:49:b3:b2:1b:03:97:f3:
         83:df:69:9f:8a:a1:cb:27:06:84:fa:17:df:73:67:5a:69:f7:
         24:ab:a6:31:84:43:c4:2c:4c:cc:88:70:c8:79:a4:17:b8:84:
         dc:01:fe:a2:91:84:9e:c3:d1:06:45:6b:bb:97:fb:7d:9b:ad:
         41:cd:0f:6c
-----BEGIN CERTIFICATE-----
MIIDnDCCAoSgAwIBAgIBAzANBgkqhkiG9w0BAQUFADAtMQswCQYDVQQGEwJJVDEM
MAoGA1UECgwDSUdJMRAwDgYDVQQDDAdUZXN0IENBMBoXCzExMTIwMTAwMDBaFwsx
MTEyMDIwMDAwWjAtMQswCQYDVQQGEwJJVDEMMAoGA1UEChMDSUdJMRAwDgYDVQQD
EwdleHBpcmVkMIIBIjANBgkqhkiG9w0BAQEFAAOCAQ8AMIIBCgKCAQEAvsBioq+d
AUHPsnjPp++kVrWAxroZ0aJznoXUrDHae80Aha6O22MFlqEk4a1paZtNtUrHF2ky
5A6Vbfk5SW2iELujZnEGtbGkaeJh6XEVXqezLI34LajYtS/IGfdZq0FcvE4BX/7x
mH2U1epN7oOCL7tyJeAO7NJ3uHF2gW7wmBzlDukXAXwsZLWTz6v+IOhJ/ilysH2H
r1kGIVYQxO0Jyibreb1yrQdIeQm5jPw9xA/mKD7SjF6Ic0BAMGdHb2PjIJYG2lSo
1+ucrVGwtJbo2q0IzQGRFJL6MRCNsDHXTRzERc3T2c3Oc3a/2Hnh4WwK01XE1/ZZ
eMXzlEMttO8YvQIDAQABo4HKMIHHMAwGA1UdEwEB/wQCMAAwHQYDVR0OBBYEFBUb
oRgo+gkl6fDOSR50yJTahMtFMA4GA1UdDwEB/wQEAwIF4DA+BgNVHSUENzA1Bggr
BgEFBQcDAQYIKwYBBQUHAwIGCisGAQQBgjcKAwMGCWCGSAGG+EIEAQYIKwYBBQUH
AwQwHwYDVR0jBBgwFoAUkXc2ey60afMn6rf2CItKI6IRScYwJwYDVR0RBCAwHoEc
YW5kcmVhLmNlY2NhbnRpQGNuYWYuaW5mbi5pdDANBgkqhkiG9w0BAQUFAAOCAQEA
yB0tiArW1Ku5hVwsEvK31wbOc4egJ656sN7yoqRJB/vsAWTeBo0o1d6FiZrCmzPO
6AZOfhrzvYkvkUGW0gt/cCPwBGxDwr1aOxTTZeoOSD0UWex8AVNb1ijK3rdsRSKy
zUjCoq7oeGVQ1I7PHoLd2nY/wWjfDHPF0cGJCHGc4krL1093PdeCe00fZEQnsgld
C2M03ripMqVjuVMjpXuDr/SajwWvTi/kKgDCfamCLDDe6mnPuJdbyC1RUuVYPJhJ
s7IbA5fzg99pn4qhyycGhPoX33NnWmn3JKumMYRDxCxMzIhwyHmkF7iE3AH+opGE
nsPRBkVru5f7fZutQc0PbA==
-----END CERTIFICATE-----
