Certificate:
    Data:
        Version: 3 (0x2)
        Serial Number: 16 (0x10)
    Signature Algorithm: sha1WithRSAEncryption
        Issuer: C=IT, O=IGI, CN=Test CA
        Validity
            Not Before: Oct 10 16:03:07 2012 GMT
            Not After : Oct  8 16:03:07 2022 GMT
        Subject: C=IT, O=IGI, CN=test-host.cnaf.infn.it
        Subject Public Key Info:
            Public Key Algorithm: rsaEncryption
                Public-Key: (2048 bit)
                Modulus:
                    00:b1:0e:8d:89:5a:f5:3c:1a:d4:8d:8e:8d:66:f2:
                    a4:74:6a:aa:94:42:3d:c4:57:c6:c6:db:3e:6b:ec:
                    d4:16:08:d1:ad:5e:5e:44:a2:62:71:99:11:69:82:
                    5a:15:7e:49:26:65:4d:6b:41:63:c4:72:88:b7:97:
                    12:3d:43:12:ee:6b:d0:a2:90:57:2c:32:92:b6:91:
                    5a:61:b7:34:72:57:7a:48:10:9b:8c:77:5c:01:ca:
                    be:56:30:d4:cf:f2:6a:08:f7:96:af:77:28:a0:ba:
                    97:26:ac:3b:34:a0:cb:c8:88:56:19:c8:18:9b:4e:
                    fe:6a:56:91:58:a7:ee:3f:34:7a:82:b9:05:ea:26:
                    81:ff:1b:3a:5e:fb:d9:e3:52:23:56:8b:9e:07:0a:
                    15:ae:4e:7e:38:dc:51:5f:f0:6f:bb:fa:f3:a6:3a:
                    d8:bc:49:31:24:e7:27:51:51:90:60:de:e5:82:e0:
                    3e:ed:de:51:6b:24:a9:8d:1e:09:09:1a:10:44:04:
                    51:f4:48:c7:f6:45:3e:e6:5a:ea:72:62:95:ec:ef:
                    08:98:62:b3:c9:af:79:30:be:58:a0:f1:39:67:48:
                    a1:b6:f2:d0:dc:fa:15:fc:31:70:c7:e9:d7:e4:b1:
                    f9:7e:3c:19:94:03:e1:07:57:3d:87:77:21:63:78:
                    1f:cd
                Exponent: 65537 (0x10001)
        X509v3 extensions:
            X509v3 Basic Constraints: critical
                CA:FALSE
            X509v3 Subject Key Identifier: 
                FA:F4:A2:78:FF:3C:E8:62:86:73:1E:F1:AE:B4:15:35:D3:1D:03:81
            X509v3 Key Usage: critical
                Digital Signature, Non Repudiation, Key Encipherment
            X509v3 Extended Key Usage: 
                TLS Web Server Authentication, TLS Web Client Authentication, Microsoft Server Gated Crypto, Netscape Server Gated Crypto, E-mail Protection
            X509v3 Authority Key Identifier: 
                keyid:91:77:36:7B:2E:B4:69:F3:27:EA:B7:F6:08:8B:4A:23:A2:11:49:C6

            X509v3 Subject Alternative Name: 
                email:andrea.ceccanti@cnaf.infn.it
    Signature Algorithm: sha1WithRSAEncryption
         96:28:72:52:23:32:b8:5f:43:ac:24:f4:7d:93:15:bd:33:58:
         1b:bd:ef:c0:4a:cf:e2:c6:64:9e:f9:40:eb:a0:c4:b3:73:c1:
         26:18:2c:18:91:eb:09:3c:e1:f9:84:c4:de:07:4c:6c:17:f7:
         dc:f6:12:de:bf:43:3a:22:ad:46:60:e0:15:4f:d5:56:8b:b6:
         67:23:8a:16:df:83:fe:2f:22:6a:6c:eb:22:4d:f1:40:c3:99:
         63:62:18:b8:12:bb:f0:ec:91:6b:bf:81:b5:90:83:63:10:b5:
         01:96:98:6a:cb:68:9a:3b:ca:bd:95:bb:09:20:94:cc:e3:97:
         43:00:49:c0:29:3b:55:59:cd:b1:c6:f4:f2:06:f1:1e:74:b0:
         45:14:3f:02:3a:49:6f:ec:57:0a:87:e1:ef:c1:7c:01:93:2a:
         23:84:9b:08:7f:18:02:09:b9:28:86:c3:62:73:42:f4:c5:59:
         65:ce:ec:81:a3:23:73:59:28:1e:54:30:3d:38:28:29:c3:2a:
         d5:71:3f:9c:75:34:d7:5a:1e:28:ad:af:68:52:bd:05:f9:6e:
         9f:9d:9e:e2:90:51:63:71:e1:7b:b3:0d:23:ae:ee:3d:92:e7:
         0d:5c:3c:67:46:53:e9:27:6f:bd:cb:57:37:e8:64:29:5d:97:
         b1:8b:61:05
-----BEGIN CERTIFICATE-----
MIIDrzCCApegAwIBAgIBEDANBgkqhkiG9w0BAQUFADAtMQswCQYDVQQGEwJJVDEM
MAoGA1UECgwDSUdJMRAwDgYDVQQDDAdUZXN0IENBMB4XDTEyMTAxMDE2MDMwN1oX
DTIyMTAwODE2MDMwN1owPDELMAkGA1UEBhMCSVQxDDAKBgNVBAoTA0lHSTEfMB0G
A1UEAxMWdGVzdC1ob3N0LmNuYWYuaW5mbi5pdDCCASIwDQYJKoZIhvcNAQEBBQAD
ggEPADCCAQoCggEBALEOjYla9Twa1I2OjWbypHRqqpRCPcRXxsbbPmvs1BYI0a1e
XkSiYnGZEWmCWhV+SSZlTWtBY8RyiLeXEj1DEu5r0KKQVywykraRWmG3NHJXekgQ
m4x3XAHKvlYw1M/yagj3lq93KKC6lyasOzSgy8iIVhnIGJtO/mpWkVin7j80eoK5
Beomgf8bOl772eNSI1aLngcKFa5OfjjcUV/wb7v686Y62LxJMSTnJ1FRkGDe5YLg
Pu3eUWskqY0eCQkaEEQEUfRIx/ZFPuZa6nJilezvCJhis8mveTC+WKDxOWdIobby
0Nz6FfwxcMfp1+Sx+X48GZQD4QdXPYd3IWN4H80CAwEAAaOByjCBxzAMBgNVHRMB
Af8EAjAAMB0GA1UdDgQWBBT69KJ4/zzoYoZzHvGutBU10x0DgTAOBgNVHQ8BAf8E
BAMCBeAwPgYDVR0lBDcwNQYIKwYBBQUHAwEGCCsGAQUFBwMCBgorBgEEAYI3CgMD
BglghkgBhvhCBAEGCCsGAQUFBwMEMB8GA1UdIwQYMBaAFJF3NnsutGnzJ+q39giL
SiOiEUnGMCcGA1UdEQQgMB6BHGFuZHJlYS5jZWNjYW50aUBjbmFmLmluZm4uaXQw
DQYJKoZIhvcNAQEFBQADggEBAJYoclIjMrhfQ6wk9H2TFb0zWBu978BKz+LGZJ75
QOugxLNzwSYYLBiR6wk84fmExN4HTGwX99z2Et6/QzoirUZg4BVP1VaLtmcjihbf
g/4vImps6yJN8UDDmWNiGLgSu/DskWu/gbWQg2MQtQGWmGrLaJo7yr2VuwkglMzj
l0MAScApO1VZzbHG9PIG8R50sEUUPwI6SW/sVwqH4e/BfAGTKiOEmwh/GAIJuSiG
w2JzQvTFWWXO7IGjI3NZKB5UMD04KCnDKtVxP5x1NNdaHiitr2hSvQX5bp+dnuKQ
UWNx4XuzDSOu7j2S5w1cPGdGU+knb73LVzfoZCldl7GLYQU=
-----END CERTIFICATE-----
