Certificate:
    Data:
        Version: 3 (0x2)
        Serial Number: 9 (0x9)
    Signature Algorithm: sha1WithRSAEncryption
        Issuer: C=IT, O=IGI, CN=Test CA
        Validity
            Not Before: Sep 26 15:39:34 2012 GMT
            Not After : Sep 24 15:39:34 2022 GMT
        Subject: C=IT, O=IGI, CN=test0
        Subject Public Key Info:
            Public Key Algorithm: rsaEncryption
                Public-Key: (2048 bit)
                Modulus:
                    00:ca:c6:da:f0:86:86:76:ed:2c:71:21:28:e5:46:
                    a5:a6:05:60:7a:53:e3:7f:c5:6d:a4:4b:5b:94:7e:
                    b4:11:6a:fe:9a:b9:5b:66:b4:45:b8:e4:9e:38:55:
                    38:b7:59:6e:98:d7:5d:d1:07:09:92:ea:85:be:de:
                    5c:f2:04:16:55:3e:a9:e1:57:df:d5:91:3c:4b:a7:
                    cd:e0:19:55:6f:1c:04:e0:1a:09:23:79:3c:48:b0:
                    e1:3e:4e:43:ca:02:86:49:fd:01:5c:09:f3:e1:dd:
                    67:59:dc:03:48:d7:85:98:90:03:3d:55:7b:12:6e:
                    1d:a8:90:2b:16:19:ae:28:ea:9c:ed:dc:fb:75:cc:
                    a9:32:3b:83:d6:d1:c0:64:95:eb:43:22:62:4a:da:
                    fb:9f:b8:35:4d:9b:b2:33:ff:2d:ff:f2:96:3c:a7:
                    73:28:8b:06:c5:fc:f7:52:6d:ae:d7:40:0c:41:59:
                    42:4c:a1:a9:5e:87:cc:72:f0:74:91:3a:7e:ed:17:
                    66:a5:c6:80:cb:1f:84:16:86:9e:94:0e:7d:ab:bc:
                    e5:ac:78:1a:94:30:f5:c5:8e:c5:22:d7:fa:e4:c3:
                    5a:07:02:33:2b:a1:39:39:94:bd:79:18:8d:0b:19:
                    de:5d:4d:5a:29:90:a5:c5:6d:34:d8:c5:29:0f:cf:
                    53:0b
                Exponent: 65537 (0x10001)
        X509v3 extensions:
            X509v3 Basic Constraints: critical
                CA:FALSE
            X509v3 Subject Key Identifier: 
                7C:B7:41:E7:E8:CE:F4:BC:96:37:6F:D5:08:D6:20:31:AD:23:BC:71
            X509v3 Key Usage: critical
                Digital Signature, Non Repudiation, Key Encipherment
            X509v3 Extended Key Usage: 
                TLS Web Server Authentication, TLS Web Client Authentication, Microsoft Server Gated Crypto, Netscape Server Gated Crypto, E-mail Protection
            X509v3 Authority Key Identifier: 
                keyid:91:77:36:7B:2E:B4:69:F3:27:EA:B7:F6:08:8B:4A:23:A2:11:49:C6

            X509v3 Subject Alternative Name: 
                email:andrea.ceccanti@cnaf.infn.it
    Signature Algorithm: sha1WithRSAEncryption
         0d:62:d5:97:7a:d8:5e:49:e5:69:09:f9:c8:77:d4:e4:2b:22:
         93:02:9f:11:6a:13:59:97:85:c5:ad:65:a7:d9:2f:56:7b:b0:
         02:2b:f1:bb:bb:50:de:6c:96:31:77:c3:ce:a3:c0:a5:b1:ca:
         17:c9:33:b6:07:31:c7:64:bc:5a:b8:42:88:cd:4b:fb:83:61:
         9e:84:8f:92:72:47:d9:76:31:72:45:78:c3:d3:ec:0c:1b:0c:
         d7:ec:c0:ee:48:bd:c2:1b:66:96:b1:8a:64:06:78:fa:04:c9:
         6b:d0:fd:e4:64:43:2a:57:9b:76:fb:64:e3:d3:e6:97:a6:90:
         4f:57:0c:c9:c1:18:67:ad:22:62:3b:95:88:64:06:5f:e3:d6:
         21:32:7e:b5:b1:02:2b:7a:9b:e1:ac:a1:14:47:85:d5:a2:b1:
         f6:06:3f:1e:93:5f:e2:2e:58:1c:98:53:01:39:db:3e:3e:b7:
         a1:49:14:7c:1a:7d:08:8e:51:20:0b:af:04:63:a2:8f:13:e1:
         4a:c9:2b:92:ed:4a:fb:95:30:23:35:d7:5d:7d:d0:20:29:5e:
         a1:27:24:93:eb:f7:71:f3:29:88:91:bf:27:c4:23:e7:c4:27:
         13:d8:8d:8d:bc:3c:5c:3c:c7:3f:c2:69:cc:6b:eb:26:35:a9:
         74:b0:9e:a6
-----BEGIN CERTIFICATE-----
MIIDnjCCAoagAwIBAgIBCTANBgkqhkiG9w0BAQUFADAtMQswCQYDVQQGEwJJVDEM
MAoGA1UECgwDSUdJMRAwDgYDVQQDDAdUZXN0IENBMB4XDTEyMDkyNjE1MzkzNFoX
DTIyMDkyNDE1MzkzNFowKzELMAkGA1UEBhMCSVQxDDAKBgNVBAoTA0lHSTEOMAwG
A1UEAxMFdGVzdDAwggEiMA0GCSqGSIb3DQEBAQUAA4IBDwAwggEKAoIBAQDKxtrw
hoZ27SxxISjlRqWmBWB6U+N/xW2kS1uUfrQRav6auVtmtEW45J44VTi3WW6Y113R
BwmS6oW+3lzyBBZVPqnhV9/VkTxLp83gGVVvHATgGgkjeTxIsOE+TkPKAoZJ/QFc
CfPh3WdZ3ANI14WYkAM9VXsSbh2okCsWGa4o6pzt3Pt1zKkyO4PW0cBkletDImJK
2vufuDVNm7Iz/y3/8pY8p3MoiwbF/PdSba7XQAxBWUJMoaleh8xy8HSROn7tF2al
xoDLH4QWhp6UDn2rvOWseBqUMPXFjsUi1/rkw1oHAjMroTk5lL15GI0LGd5dTVop
kKXFbTTYxSkPz1MLAgMBAAGjgcowgccwDAYDVR0TAQH/BAIwADAdBgNVHQ4EFgQU
fLdB5+jO9LyWN2/VCNYgMa0jvHEwDgYDVR0PAQH/BAQDAgXgMD4GA1UdJQQ3MDUG
CCsGAQUFBwMBBggrBgEFBQcDAgYKKwYBBAGCNwoDAwYJYIZIAYb4QgQBBggrBgEF
BQcDBDAfBgNVHSMEGDAWgBSRdzZ7LrRp8yfqt/YIi0ojohFJxjAnBgNVHREEIDAe
gRxhbmRyZWEuY2VjY2FudGlAY25hZi5pbmZuLml0MA0GCSqGSIb3DQEBBQUAA4IB
AQANYtWXetheSeVpCfnId9TkKyKTAp8RahNZl4XFrWWn2S9We7ACK/G7u1DebJYx
d8POo8ClscoXyTO2BzHHZLxauEKIzUv7g2GehI+SckfZdjFyRXjD0+wMGwzX7MDu
SL3CG2aWsYpkBnj6BMlr0P3kZEMqV5t2+2Tj0+aXppBPVwzJwRhnrSJiO5WIZAZf
49YhMn61sQIrepvhrKEUR4XVorH2Bj8ek1/iLlgcmFMBOds+PrehSRR8Gn0IjlEg
C68EY6KPE+FKySuS7Ur7lTAjNdddfdAgKV6hJyST6/dx8ymIkb8nxCPnxCcT2I2N
vDxcPMc/wmnMa+smNal0sJ6m
-----END CERTIFICATE-----
